target datalayout = "e-m:e-p270:32:32-p271:32:32-p272:64:64-i64:64-i128:128-f80:128-n8:16:32:64-S128"
target triple = "x86_64-pc-linux-gnu"

%struct.QOSGraphObject = type { ptr, ptr, ptr, ptr, ptr }
%struct.QVirtio9P = type { ptr, ptr }
%struct.QVirtio9PPCI = type { %struct.QVirtioPCIDevice, %struct.QVirtio9P }
%struct.QVirtioPCIDevice = type { %struct.QOSGraphObject, %struct.QVirtioDevice, ptr, %struct.QPCIBar, ptr, i16, i64, i32, i32, i32, i32, i32, i32, i32 }
%struct.QVirtioDevice = type { ptr, i16, i64, i8, i8 }
%struct.QPCIBar = type { i64, i8 }

@alloc = internal global ptr null, align 8

; Function Attrs: nounwind sspstrong uwtable
define internal void @virtio_9p_setup(ptr noundef %0) #0 {
  %2 = alloca ptr, align 8
  %3 = alloca i64, align 8
  store ptr %0, ptr %2, align 8
  call void @llvm.lifetime.start.p0(i64 8, ptr %3) #14
  store i64 0, ptr %3, align 8, !annotation !4
  %4 = load ptr, ptr %2, align 8
  %5 = getelementptr inbounds nuw %struct.QVirtio9P, ptr %4, i32 0, i32 0
  %6 = load ptr, ptr %5, align 8
  %7 = call i64 @qvirtio_get_features(ptr noundef %6)
  store i64 %7, ptr %3, align 8
  %8 = load i64, ptr %3, align 8
  %9 = and i64 %8, -1610612737
  store i64 %9, ptr %3, align 8
  %10 = load ptr, ptr %2, align 8
  %11 = getelementptr inbounds nuw %struct.QVirtio9P, ptr %10, i32 0, i32 0
  %12 = load ptr, ptr %11, align 8
  %13 = load i64, ptr %3, align 8
  call void @qvirtio_set_features(ptr noundef %12, i64 noundef %13)
  %14 = load ptr, ptr %2, align 8
  %15 = getelementptr inbounds nuw %struct.QVirtio9P, ptr %14, i32 0, i32 0
  %16 = load ptr, ptr %15, align 8
  %17 = load ptr, ptr @alloc, align 8
  %18 = call ptr @qvirtqueue_setup(ptr noundef %16, ptr noundef %17, i16 noundef zeroext 0)
  %19 = load ptr, ptr %2, align 8
  %20 = getelementptr inbounds nuw %struct.QVirtio9P, ptr %19, i32 0, i32 1
  store ptr %18, ptr %20, align 8
  %21 = load ptr, ptr %2, align 8
  %22 = getelementptr inbounds nuw %struct.QVirtio9P, ptr %21, i32 0, i32 0
  %23 = load ptr, ptr %22, align 8
  call void @qvirtio_set_driver_ok(ptr noundef %23)
  call void @llvm.lifetime.end.p0(i64 8, ptr %3) #14
  ret void
}

; Function Attrs: nounwind sspstrong uwtable
define internal void @virtio_9p_pci_start_hw(ptr noundef %0) #0 {
  %2 = alloca ptr, align 8
  %3 = alloca ptr, align 8
  %4 = alloca ptr, align 8
  %5 = alloca ptr, align 8
  store ptr %0, ptr %2, align 8
  call void @llvm.lifetime.start.p0(i64 8, ptr %3) #14
  %6 = load ptr, ptr %2, align 8
  store ptr %6, ptr %3, align 8
  call void @llvm.lifetime.start.p0(i64 8, ptr %4) #14
  %7 = load ptr, ptr %3, align 8
  %8 = getelementptr inbounds nuw %struct.QVirtio9PPCI, ptr %7, i32 0, i32 1
  store ptr %8, ptr %4, align 8
  call void @llvm.lifetime.start.p0(i64 8, ptr %5) #14
  %9 = load ptr, ptr %3, align 8
  %10 = getelementptr inbounds nuw %struct.QVirtio9PPCI, ptr %9, i32 0, i32 0
  %11 = getelementptr inbounds nuw %struct.QVirtioPCIDevice, ptr %10, i32 0, i32 0
  store ptr %11, ptr %5, align 8
  %12 = load ptr, ptr %5, align 8
  call void @qvirtio_pci_start_hw(ptr noundef %12)
  %13 = load ptr, ptr %4, align 8
  call void @virtio_9p_setup(ptr noundef %13)
  call void @llvm.lifetime.end.p0(i64 8, ptr %5) #14
  call void @llvm.lifetime.end.p0(i64 8, ptr %4) #14
  call void @llvm.lifetime.end.p0(i64 8, ptr %3) #14
  ret void
}